target datalayout = "e-m:e-p270:32:32-p271:32:32-p272:64:64-i64:64-i128:128-f80:128-n8:16:32:64-S128"
target triple = "x86_64-unknown-linux-gnu"

%struct.iovec = type { ptr, i64 }
%struct.QEMUIOVector = type { ptr, i32, %union.anon }
%union.anon = type { %struct.anon }
%struct.anon = type { i32, %struct.iovec }

; Function Attrs: nounwind sspstrong uwtable
define dso_local void @qemu_iovec_destroy(ptr noundef %qiov) #0 {
entry:
  %qiov.addr = alloca ptr, align 8
  store ptr %qiov, ptr %qiov.addr, align 8
  %0 = load ptr, ptr %qiov.addr, align 8
  %1 = getelementptr inbounds %struct.QEMUIOVector, ptr %0, i32 0, i32 2
  %nalloc = getelementptr inbounds %struct.anon, ptr %1, i32 0, i32 0
  %2 = load i32, ptr %nalloc, align 8
  %cmp = icmp ne i32 %2, -1
  br i1 %cmp, label %if.then, label %if.end

if.then:                                          ; preds = %entry
  %3 = load ptr, ptr %qiov.addr, align 8
  %iov = getelementptr inbounds %struct.QEMUIOVector, ptr %3, i32 0, i32 0
  %4 = load ptr, ptr %iov, align 8
  call void @g_free(ptr noundef %4)
  br label %if.end

if.end:                                           ; preds = %if.then, %entry
  %5 = load ptr, ptr %qiov.addr, align 8
  call void @llvm.memset.p0.i64(ptr align 8 %5, i8 0, i64 40, i1 false)
  ret void
}