; Function Attrs: nounwind sspstrong uwtable
define dso_local void @qemu_iovec_destroy(ptr noundef captures(none) initializes((8, 16), (20, 40)) %qiov) local_unnamed_addr #0 {
entry:
  %0 = getelementptr inbounds nuw i8, ptr %qiov, i64 16
  %1 = load i32, ptr %0, align 8
  %cmp.not = icmp eq i32 %1, -1
  br i1 %cmp.not, label %if.end, label %if.then

if.then:                                          ; preds = %entry
  %2 = load ptr, ptr %qiov, align 8
  tail call void @g_free(ptr noundef %2) #19
  br label %if.end

if.end:                                           ; preds = %if.then, %entry
  tail call void @llvm.memset.p0.i64(ptr noundef nonnull align 8 dereferenceable(40) %qiov, i8 0, i64 40, i1 false)
  ret void
}